; Function Attrs: nounwind uwtable
define ptr @Gia_ManComputeDepTest(ptr noundef %0) local_unnamed_addr #2 {
  %2 = alloca %struct.timespec, align 8
  %3 = alloca %struct.timespec, align 8
  call void @llvm.lifetime.start.p0(i64 16, ptr nonnull %3)
  %4 = call i32 @clock_gettime(i32 noundef 1, ptr noundef nonnull %3) #36
  %5 = icmp slt i32 %4, 0
  br i1 %5, label %Abc_Clock.exit, label %6

6:                                                ; preds = %1
  %7 = load i64, ptr %3, align 8
  %.neg10 = mul i64 %7, -1000000
  %8 = getelementptr inbounds nuw i8, ptr %3, i64 8
  %9 = load i64, ptr %8, align 8
  %.neg = sdiv i64 %9, -1000
  %.neg11 = add i64 %.neg, %.neg10
  br label %Abc_Clock.exit

Abc_Clock.exit:                                   ; preds = %1, %6
  %.0.i.neg = phi i64 [ %.neg11, %6 ], [ 1, %1 ]
  call void @llvm.lifetime.end.p0(i64 16, ptr nonnull %3)
  %10 = getelementptr i8, ptr %0, i64 64
  %.val12 = load ptr, ptr %10, align 8
  %11 = getelementptr i8, ptr %.val12, i64 4
  %.val.val13 = load i32, ptr %11, align 4
  %12 = icmp sgt i32 %.val.val13, 0
  br i1 %12, label %.lr.ph, label %._crit_edge

.lr.ph:                                           ; preds = %Abc_Clock.exit, %.lr.ph
  %.014 = phi i32 [ %32, %.lr.ph ], [ 0, %Abc_Clock.exit ]
  %13 = call ptr @Gia_ManComputeDepAig(ptr noundef nonnull %0, i32 noundef %.014, i32 noundef 0)
  %14 = call ptr @Cec4_ManSimulateTest3(ptr noundef %13, i32 noundef 100000, i32 noundef 0) #36
  %15 = getelementptr i8, ptr %14, i64 32
  %.val15.i = load ptr, ptr %15, align 8
  %16 = getelementptr i8, ptr %14, i64 72
  %.val16.i = load ptr, ptr %16, align 8
  %17 = getelementptr i8, ptr %.val16.i, i64 8
  %.val16.val.i = load ptr, ptr %17, align 8
  %18 = load i32, ptr %.val16.val.i, align 4
  %19 = sext i32 %18 to i64
  %20 = getelementptr inbounds %struct.Gia_Obj_t_, ptr %.val15.i, i64 %19
  %.val3.i.i = load i64, ptr %20, align 4
  %21 = trunc i64 %.val3.i.i to i32
  %22 = and i32 %21, 536870911
  %23 = getelementptr inbounds nuw i8, ptr %.val16.val.i, i64 4
  %24 = load i32, ptr %23, align 4
  %25 = sext i32 %24 to i64
  %26 = getelementptr inbounds %struct.Gia_Obj_t_, ptr %.val15.i, i64 %25
  %.val3.i19.i = load i64, ptr %26, align 4
  %27 = trunc i64 %.val3.i19.i to i32
  %28 = and i32 %27, 536870911
  call void @Gia_ManStop(ptr noundef %13) #36
  call void @Gia_ManStop(ptr noundef %14) #36
  %29 = icmp ne i32 %18, %22
  %30 = icmp eq i32 %24, %28
  %..i = sext i1 %29 to i32
  %spec.select.i = select i1 %29, i32 1, i32 2
  %.0.i7 = select i1 %30, i32 %spec.select.i, i32 %..i
  %31 = call i32 (ptr, ...) @printf(ptr noundef nonnull dereferenceable(1) @.str.60, i32 noundef %.014, i32 noundef %.0.i7)
  %32 = add nuw nsw i32 %.014, 1
  %.val = load ptr, ptr %10, align 8
  %33 = getelementptr i8, ptr %.val, i64 4
  %.val.val = load i32, ptr %33, align 4
  %34 = icmp slt i32 %32, %.val.val
  br i1 %34, label %.lr.ph, label %._crit_edge, !llvm.loop !133

._crit_edge:                                      ; preds = %.lr.ph, %Abc_Clock.exit
  call void @llvm.lifetime.start.p0(i64 16, ptr nonnull %2)
  %35 = call i32 @clock_gettime(i32 noundef 1, ptr noundef nonnull %2) #36
  %36 = icmp slt i32 %35, 0
  br i1 %36, label %Abc_Clock.exit9, label %37

37:                                               ; preds = %._crit_edge
  %38 = load i64, ptr %2, align 8
  %39 = mul nsw i64 %38, 1000000
  %40 = getelementptr inbounds nuw i8, ptr %2, i64 8
  %41 = load i64, ptr %40, align 8
  %42 = sdiv i64 %41, 1000
  %43 = add nsw i64 %42, %39
  br label %Abc_Clock.exit9

Abc_Clock.exit9:                                  ; preds = %._crit_edge, %37
  %.0.i8 = phi i64 [ %43, %37 ], [ -1, %._crit_edge ]
  call void @llvm.lifetime.end.p0(i64 16, ptr nonnull %2)
  %44 = add i64 %.0.i8, %.0.i.neg
  call void (i32, ptr, ...) @Abc_Print(i32 poison, ptr noundef nonnull @.str.84, ptr noundef nonnull @.str.26)
  %45 = sitofp i64 %44 to double
  %46 = fdiv double %45, 1.000000e+06
  call void (i32, ptr, ...) @Abc_Print(i32 poison, ptr noundef nonnull @.str.85, double noundef %46)
  %47 = call ptr @Gia_ManDup(ptr noundef nonnull %0) #36
  ret ptr %47
}